; Function Attrs: nounwind uwtable
define ptr @l_Lean_IR_MapVars_mapArg(ptr noundef %0, ptr noundef %1) local_unnamed_addr #0 {
  %3 = ptrtoint ptr %1 to i64
  %4 = and i64 %3, 1
  %.not.i22 = icmp eq i64 %4, 0
  br i1 %.not.i22, label %8, label %5

5:                                                ; preds = %2
  %6 = lshr i64 %3, 1
  %7 = trunc i64 %6 to i32
  br label %lean_obj_tag.exit

8:                                                ; preds = %2
  %9 = getelementptr i8, ptr %1, i64 4
  %.val.i = load i32, ptr %9, align 4
  %10 = lshr i32 %.val.i, 24
  br label %lean_obj_tag.exit

lean_obj_tag.exit:                                ; preds = %5, %8
  %.0.i = phi i32 [ %7, %5 ], [ %10, %8 ]
  %11 = icmp eq i32 %.0.i, 0
  br i1 %11, label %12, label %40

12:                                               ; preds = %lean_obj_tag.exit
  %.val = load i32, ptr %1, align 4, !tbaa !9
  %13 = icmp eq i32 %.val, 1
  %14 = getelementptr inbounds nuw i8, ptr %1, i64 8
  %15 = load ptr, ptr %14, align 8, !tbaa !5
  br i1 %13, label %16, label %18

16:                                               ; preds = %12
  %17 = tail call ptr @lean_apply_1(ptr noundef %0, ptr noundef %15) #4
  store ptr %17, ptr %14, align 8, !tbaa !5
  br label %lean_dec.exit

18:                                               ; preds = %12
  %19 = ptrtoint ptr %15 to i64
  %20 = and i64 %19, 1
  %.not25 = icmp eq i64 %20, 0
  br i1 %.not25, label %21, label %lean_inc.exit

21:                                               ; preds = %18
  %.val.i23 = load i32, ptr %15, align 4, !tbaa !9
  %22 = icmp sgt i32 %.val.i23, 0
  br i1 %22, label %23, label %25, !prof !12

23:                                               ; preds = %21
  %24 = add nuw i32 %.val.i23, 1
  store i32 %24, ptr %15, align 4, !tbaa !9
  br label %lean_inc.exit

25:                                               ; preds = %21
  %.not.i24 = icmp eq i32 %.val.i23, 0
  br i1 %.not.i24, label %lean_inc.exit, label %26

26:                                               ; preds = %25
  tail call void @lean_inc_ref_cold(ptr noundef nonnull %15) #4
  br label %lean_inc.exit

lean_inc.exit:                                    ; preds = %26, %25, %23, %18
  br i1 %.not.i22, label %27, label %lean_dec.exit19

27:                                               ; preds = %lean_inc.exit
  %28 = load i32, ptr %1, align 4, !tbaa !9
  %29 = icmp sgt i32 %28, 1
  br i1 %29, label %30, label %32, !prof !12

30:                                               ; preds = %27
  %31 = add nsw i32 %28, -1
  store i32 %31, ptr %1, align 4, !tbaa !9
  br label %lean_dec.exit19

32:                                               ; preds = %27
  %.not.i = icmp eq i32 %28, 0
  br i1 %.not.i, label %lean_dec.exit19, label %33

33:                                               ; preds = %32
  tail call void @lean_dec_ref_cold(ptr noundef nonnull %1) #4
  br label %lean_dec.exit19

lean_dec.exit19:                                  ; preds = %33, %32, %30, %lean_inc.exit
  %34 = tail call ptr @lean_apply_1(ptr noundef %0, ptr noundef %15) #4
  tail call void @lean_inc_heartbeat() #4
  %35 = tail call noalias ptr @mi_malloc_small(i64 noundef 16) #4
  %36 = icmp eq ptr %35, null
  br i1 %36, label %37, label %lean_alloc_ctor.exit

37:                                               ; preds = %lean_dec.exit19
  tail call void @lean_internal_panic_out_of_memory() #5
  unreachable

lean_alloc_ctor.exit:                             ; preds = %lean_dec.exit19
  %38 = getelementptr inbounds nuw i8, ptr %35, i64 4
  store i32 1, ptr %35, align 4, !tbaa !9
  store i32 65552, ptr %38, align 4
  %39 = getelementptr inbounds nuw i8, ptr %35, i64 8
  store ptr %34, ptr %39, align 8, !tbaa !5
  br label %lean_dec.exit

40:                                               ; preds = %lean_obj_tag.exit
  %41 = ptrtoint ptr %0 to i64
  %42 = and i64 %41, 1
  %.not = icmp eq i64 %42, 0
  br i1 %.not, label %43, label %lean_dec.exit

43:                                               ; preds = %40
  %44 = load i32, ptr %0, align 4, !tbaa !9
  %45 = icmp sgt i32 %44, 1
  br i1 %45, label %46, label %48, !prof !12

46:                                               ; preds = %43
  %47 = add nsw i32 %44, -1
  store i32 %47, ptr %0, align 4, !tbaa !9
  br label %lean_dec.exit

48:                                               ; preds = %43
  %.not.i20 = icmp eq i32 %44, 0
  br i1 %.not.i20, label %lean_dec.exit, label %49

49:                                               ; preds = %48
  tail call void @lean_dec_ref_cold(ptr noundef nonnull %0) #4
  br label %lean_dec.exit

lean_dec.exit:                                    ; preds = %40, %46, %48, %49, %16, %lean_alloc_ctor.exit
  %.1 = phi ptr [ %1, %16 ], [ %35, %lean_alloc_ctor.exit ], [ %1, %49 ], [ %1, %48 ], [ %1, %46 ], [ %1, %40 ]
  ret ptr %.1
}